target datalayout = "e-m:e-p270:32:32-p271:32:32-p272:64:64-i64:64-i128:128-f80:128-n8:16:32:64-S128"
target triple = "x86_64-unknown-linux-gnu"

%"class.google::protobuf::FieldDescriptor" = type { %"class.google::protobuf::internal::SymbolBase", i8, i8, i8, i32, ptr, ptr, ptr, ptr, %union.anon, %union.anon.0, ptr, ptr, ptr, %union.anon.1 }
%"class.google::protobuf::internal::SymbolBase" = type { i8 }
%union.anon = type { ptr }
%union.anon.0 = type { ptr }
%union.anon.1 = type { i64 }

; Function Attrs: mustprogress nounwind uwtable
define linkonce_odr hidden noundef i32 @_ZNK6google8protobuf15FieldDescriptor6numberEv(ptr noundef nonnull align 8 dereferenceable(88) %this) #5 comdat align 2 {
entry:
  %this.addr = alloca ptr, align 8
  store ptr %this, ptr %this.addr, align 8
  %this1 = load ptr, ptr %this.addr, align 8
  %number_ = getelementptr inbounds %"class.google::protobuf::FieldDescriptor", ptr %this1, i32 0, i32 4
  %0 = load i32, ptr %number_, align 4
  ret i32 %0
}

; Function Attrs: mustprogress uwtable
define noundef zeroext i1 @_ZN6google8protobuf4util18MessageDifferencer11FieldBeforeEPKNS0_15FieldDescriptorES5_(ptr noundef %field1, ptr noundef %field2) #4 align 2 {
entry:
  %retval = alloca i1, align 1
  %field1.addr = alloca ptr, align 8
  %field2.addr = alloca ptr, align 8
  store ptr %field1, ptr %field1.addr, align 8
  store ptr %field2, ptr %field2.addr, align 8
  %0 = load ptr, ptr %field1.addr, align 8
  %cmp = icmp eq ptr %0, null
  br i1 %cmp, label %if.then, label %if.end

if.then:                                          ; preds = %entry
  store i1 false, ptr %retval, align 1
  br label %return

if.end:                                           ; preds = %entry
  %1 = load ptr, ptr %field2.addr, align 8
  %cmp1 = icmp eq ptr %1, null
  br i1 %cmp1, label %if.then2, label %if.end3

if.then2:                                         ; preds = %if.end
  store i1 true, ptr %retval, align 1
  br label %return

if.end3:                                          ; preds = %if.end
  %2 = load ptr, ptr %field1.addr, align 8
  %call = call noundef i32 @_ZNK6google8protobuf15FieldDescriptor6numberEv(ptr noundef nonnull align 8 dereferenceable(88) %2)
  %3 = load ptr, ptr %field2.addr, align 8
  %call4 = call noundef i32 @_ZNK6google8protobuf15FieldDescriptor6numberEv(ptr noundef nonnull align 8 dereferenceable(88) %3)
  %cmp5 = icmp slt i32 %call, %call4
  store i1 %cmp5, ptr %retval, align 1
  br label %return

return:                                           ; preds = %if.end3, %if.then2, %if.then
  %4 = load i1, ptr %retval, align 1
  ret i1 %4
}