; Function Attrs: mustprogress nofree norecurse nosync nounwind willreturn memory(argmem: read) uwtable
define noundef zeroext i1 @_ZN6google8protobuf4util18MessageDifferencer11FieldBeforeEPKNS0_15FieldDescriptorES5_(ptr noundef readonly %field1, ptr noundef readonly %field2) #6 align 2 {
entry:
  %cmp = icmp eq ptr %field1, null
  br i1 %cmp, label %return, label %if.end

if.end:                                           ; preds = %entry
  %cmp1 = icmp eq ptr %field2, null
  br i1 %cmp1, label %return, label %if.end3

if.end3:                                          ; preds = %if.end
  %number_.i = getelementptr inbounds i8, ptr %field1, i64 4
  %0 = load i32, ptr %number_.i, align 4
  %number_.i3 = getelementptr inbounds i8, ptr %field2, i64 4
  %1 = load i32, ptr %number_.i3, align 4
  %cmp5 = icmp slt i32 %0, %1
  br label %return

return:                                           ; preds = %if.end, %entry, %if.end3
  %retval.0 = phi i1 [ %cmp5, %if.end3 ], [ false, %entry ], [ true, %if.end ]
  ret i1 %retval.0
}